; Function Attrs: inlinehint mustprogress nounwind uwtable
define internal void @_ZN3net12_GLOBAL__N_123HeaderTableDebugVisitorD0Ev(ptr noundef nonnull align 8 dereferenceable(24) initializes((0, 8)) %0) unnamed_addr #14 align 2 personality ptr @__gxx_personality_v0 {
  store ptr getelementptr inbounds nuw inrange(-16, 32) (i8, ptr @_ZTVN3net12_GLOBAL__N_123HeaderTableDebugVisitorE, i64 16), ptr %0, align 8, !tbaa !3
  %2 = getelementptr inbounds nuw i8, ptr %0, i64 16
  %3 = load ptr, ptr %2, align 8, !tbaa !385
  %.not.i.i = icmp eq ptr %3, null
  br i1 %.not.i.i, label %_ZN3net12_GLOBAL__N_123HeaderTableDebugVisitorD2Ev.exit, label %_ZNKSt14default_deleteIN3net17QuicHeadersStream17HpackDebugVisitorEEclEPS2_.exit.i.i

_ZNKSt14default_deleteIN3net17QuicHeadersStream17HpackDebugVisitorEEclEPS2_.exit.i.i: ; preds = %1
  %4 = load ptr, ptr %3, align 8, !tbaa !3
  %5 = getelementptr inbounds nuw i8, ptr %4, i64 8
  %6 = load ptr, ptr %5, align 8
  tail call void %6(ptr noundef nonnull align 8 dereferenceable(8) %3) #23
  br label %_ZN3net12_GLOBAL__N_123HeaderTableDebugVisitorD2Ev.exit

_ZN3net12_GLOBAL__N_123HeaderTableDebugVisitorD2Ev.exit: ; preds = %1, %_ZNKSt14default_deleteIN3net17QuicHeadersStream17HpackDebugVisitorEEclEPS2_.exit.i.i
  tail call void @_ZdlPv(ptr noundef nonnull %0) #22
  ret void
}